; Function Attrs: nounwind uwtable
define hidden void @zend_jit_undefined_long_key(ptr nocapture noundef %0) local_unnamed_addr #0 {
  %2 = load ptr, ptr %0, align 8
  %3 = getelementptr inbounds i8, ptr %2, i64 16
  %4 = load i32, ptr %3, align 8
  %5 = getelementptr inbounds i8, ptr %2, i64 30
  %6 = load i8, ptr %5, align 2
  %7 = icmp eq i8 %6, 1
  %8 = getelementptr inbounds i8, ptr %2, i64 12
  %9 = load i32, ptr %8, align 4
  %10 = sext i32 %9 to i64
  %. = select i1 %7, ptr %2, ptr %0
  %11 = getelementptr inbounds i8, ptr %., i64 %10
  %12 = sext i32 %4 to i64
  %13 = getelementptr inbounds i8, ptr %0, i64 %12
  %14 = load i64, ptr %11, align 8
  tail call void (i32, ptr, ...) @zend_error(i32 noundef 2, ptr noundef nonnull @.str, i64 noundef %14) #6
  %15 = getelementptr inbounds i8, ptr %13, i64 8
  store i32 1, ptr %15, align 8
  ret void
}